target datalayout = "e-m:e-p270:32:32-p271:32:32-p272:64:64-i64:64-i128:128-f80:128-n8:16:32:64-S128"
target triple = "x86_64-pc-linux-gnu"

%struct.ssl_connection_st = type { %struct.ssl_st, ptr, i32, ptr, ptr, ptr, i32, ptr, i32, i32, i32, i32, %struct.OSSL_TIME, %struct.OSSL_TIME, %struct.ossl_statem_st, i32, ptr, ptr, i64, i64, i64, %struct.ossl_quic_tls_callbacks_st, ptr, ptr, %struct.anon, ptr, ptr, ptr, i32, ptr, %struct.ssl_dane_st, ptr, ptr, ptr, ptr, i32, [64 x i8], [64 x i8], [64 x i8], [64 x i8], [64 x i8], [64 x i8], [64 x i8], [64 x i8], [64 x i8], [64 x i8], [64 x i8], [64 x i8], ptr, [64 x i8], i64, i32, i64, [32 x i8], ptr, ptr, ptr, i64, ptr, [32 x i8], i64, i32, ptr, ptr, i32, i32, ptr, ptr, ptr, ptr, ptr, i64, ptr, ptr, i64, i32, i32, i32, i64, i32, i32, i64, i64, i64, %struct.anon.1, ptr, i32, ptr, ptr, ptr, i32, ptr, ptr, ptr, i32, i32, i32, i32, ptr, i64, i32, ptr, %struct.srp_ctx_st, ptr, %struct.record_layer_st, ptr, ptr, ptr, ptr, i64, i32, i32, i32, i64, i64, i64, ptr, ptr, ptr, ptr, ptr, i64, ptr, i64, ptr, i64 }
%struct.ssl_st = type { i32, ptr, ptr, ptr, %struct.CRYPTO_REF_COUNT, ptr, %struct.crypto_ex_data_st }
%struct.CRYPTO_REF_COUNT = type { i32 }
%struct.crypto_ex_data_st = type { ptr, ptr }
%struct.OSSL_TIME = type { i64 }
%struct.ossl_statem_st = type { i32, i32, i32, i32, i32, i32, i32, i32, i32, i32, i32, i32, i32, ptr, ptr, ptr, i8 }
%struct.ossl_quic_tls_callbacks_st = type { ptr, ptr, ptr, ptr, ptr, ptr }
%struct.anon = type { i64, [32 x i8], [32 x i8], ptr, ptr, i32, i32, i32, i32, [2 x i8], i32, i32, i32, i32, %struct.anon.0, [64 x i8], i64, [64 x i8], i64, i32, i32, ptr, i64, ptr, i64, i32, i8, i8, i16, ptr, i16 }
%struct.anon.0 = type { [128 x i8], i64, [128 x i8], i64, i64, i32, ptr, ptr, [4 x ptr], [4 x i16], i64, i32, ptr, i64, ptr, i64, ptr, ptr, ptr, i32, i64, ptr, i32, ptr, i64, ptr, i64, ptr, i64, ptr, ptr, ptr, ptr, i64, i64, ptr, ptr, i32, i32, i32, i32 }
%struct.ssl_dane_st = type { ptr, ptr, ptr, ptr, ptr, i32, i32, i32, i64 }
%struct.anon.1 = type { [29 x i8], ptr, ptr, ptr, i32, ptr, i16, i32, %struct.anon.2, i32, i32, i64, ptr, i64, ptr, i64, ptr, i64, ptr, i64, ptr, i64, ptr, ptr, ptr, ptr, ptr, ptr, ptr, i64, ptr, i64, i32, i32, i32, i32, ptr, i64, i32, i8, i32, [4 x i32], i32, i8, i8, i8, i8 }
%struct.anon.2 = type { ptr, ptr, ptr, i64 }
%struct.srp_ctx_st = type { ptr, ptr, ptr, ptr, ptr, ptr, ptr, ptr, ptr, ptr, ptr, ptr, ptr, ptr, i32, i64 }
%struct.record_layer_st = type { ptr, ptr, ptr, ptr, ptr, ptr, ptr, ptr, i64, i32, i64, [4 x i8], i64, i64, i8, ptr, i32, ptr, ptr, ptr, i64, i64, i64, i64, [32 x %struct.tls_record_st] }
%struct.tls_record_st = type { ptr, i32, i8, ptr, ptr, i64, i64, i16, [8 x i8] }
%struct.ssl_method_st = type { i32, i32, i64, ptr, ptr, ptr, ptr, ptr, ptr, ptr, ptr, ptr, ptr, ptr, ptr, ptr, ptr, ptr, ptr, ptr, ptr, ptr, ptr, ptr, ptr, ptr, ptr, ptr, ptr, ptr, ptr, ptr }
%struct.ssl3_enc_method = type { ptr, ptr, ptr, ptr, ptr, i64, ptr, i64, ptr, ptr, i32, ptr, ptr, ptr }
%struct.ssl_ctx_st = type { ptr, ptr, ptr, ptr, ptr, ptr, ptr, i64, ptr, ptr, i32, %struct.OSSL_TIME, ptr, ptr, ptr, %struct.anon.4, %struct.CRYPTO_REF_COUNT, ptr, ptr, ptr, ptr, ptr, ptr, ptr, ptr, ptr, %struct.crypto_ex_data_st, ptr, ptr, ptr, ptr, ptr, ptr, ptr, i64, i32, i32, i32, i64, ptr, ptr, i32, ptr, ptr, i32, i64, [32 x i8], ptr, ptr, ptr, i32, ptr, ptr, ptr, i64, i64, i64, i64, ptr, ptr, ptr, ptr, ptr, %struct.anon.5, ptr, ptr, ptr, ptr, %struct.srp_ctx_st, %struct.dane_ctx_st, ptr, ptr, ptr, ptr, i32, i32, ptr, ptr, i64, i64, ptr, ptr, ptr, i64, ptr, ptr, i32, ptr, ptr, ptr, [14 x i32], [24 x ptr], [14 x ptr], [14 x i64], i64, ptr, ptr, ptr, i64, i64, ptr, i64, i64, i32, i32, i32, i32, ptr, i64, ptr, i64, i64, ptr, ptr }
%struct.anon.4 = type { i32, i32, i32, i32, i32, i32, i32, i32, i32, i32, i32 }
%struct.anon.5 = type { ptr, ptr, [16 x i8], ptr, ptr, ptr, ptr, ptr, i32, i8, i64, ptr, i64, ptr, i64, ptr, i64, ptr, ptr, i64, ptr, ptr, ptr, i64, ptr, ptr, ptr, ptr, [32 x i8] }
%struct.dane_ctx_st = type { ptr, ptr, i8, i64 }

@.str.1 = private unnamed_addr constant [36 x i8] c"../openssl/ssl/statem/statem_srvr.c\00", align 1
@__func__.tls_construct_certificate_request = private unnamed_addr constant [34 x i8] c"tls_construct_certificate_request\00", align 1

; Function Attrs: nounwind uwtable
define i32 @tls_construct_certificate_request(ptr noundef %0, ptr noundef %1) #0 {
  %3 = alloca i32, align 4
  %4 = alloca ptr, align 8
  %5 = alloca ptr, align 8
  %6 = alloca ptr, align 8
  %7 = alloca i64, align 8
  %8 = alloca i32, align 4
  store ptr %0, ptr %4, align 8, !tbaa !11
  store ptr %1, ptr %5, align 8, !tbaa !145
  %9 = load ptr, ptr %4, align 8, !tbaa !11
  %10 = getelementptr inbounds nuw %struct.ssl_connection_st, ptr %9, i32 0, i32 0
  %11 = getelementptr inbounds nuw %struct.ssl_st, ptr %10, i32 0, i32 3
  %12 = load ptr, ptr %11, align 8, !tbaa !17
  %13 = getelementptr inbounds nuw %struct.ssl_method_st, ptr %12, i32 0, i32 28
  %14 = load ptr, ptr %13, align 8, !tbaa !77
  %15 = getelementptr inbounds nuw %struct.ssl3_enc_method, ptr %14, i32 0, i32 10
  %16 = load i32, ptr %15, align 8, !tbaa !80
  %17 = and i32 %16, 8
  %18 = icmp ne i32 %17, 0
  br i1 %18, label %104, label %19

19:                                               ; preds = %2
  %20 = load ptr, ptr %4, align 8, !tbaa !11
  %21 = getelementptr inbounds nuw %struct.ssl_connection_st, ptr %20, i32 0, i32 0
  %22 = getelementptr inbounds nuw %struct.ssl_st, ptr %21, i32 0, i32 3
  %23 = load ptr, ptr %22, align 8, !tbaa !17
  %24 = getelementptr inbounds nuw %struct.ssl_method_st, ptr %23, i32 0, i32 0
  %25 = load i32, ptr %24, align 8, !tbaa !82
  %26 = icmp sge i32 %25, 772
  br i1 %26, label %27, label %104

27:                                               ; preds = %19
  %28 = load ptr, ptr %4, align 8, !tbaa !11
  %29 = getelementptr inbounds nuw %struct.ssl_connection_st, ptr %28, i32 0, i32 0
  %30 = getelementptr inbounds nuw %struct.ssl_st, ptr %29, i32 0, i32 3
  %31 = load ptr, ptr %30, align 8, !tbaa !17
  %32 = getelementptr inbounds nuw %struct.ssl_method_st, ptr %31, i32 0, i32 0
  %33 = load i32, ptr %32, align 8, !tbaa !82
  %34 = icmp ne i32 %33, 65536
  br i1 %34, label %35, label %104

35:                                               ; preds = %27
  %36 = load ptr, ptr %4, align 8, !tbaa !11
  %37 = getelementptr inbounds nuw %struct.ssl_connection_st, ptr %36, i32 0, i32 96
  %38 = load i32, ptr %37, align 8, !tbaa !95
  %39 = icmp eq i32 %38, 3
  br i1 %39, label %40, label %90

40:                                               ; preds = %35
  %41 = load ptr, ptr %4, align 8, !tbaa !11
  %42 = getelementptr inbounds nuw %struct.ssl_connection_st, ptr %41, i32 0, i32 98
  %43 = load ptr, ptr %42, align 8, !tbaa !207
  call void @CRYPTO_free(ptr noundef %43, ptr noundef @.str.1, i32 noundef 2834)
  %44 = load ptr, ptr %4, align 8, !tbaa !11
  %45 = getelementptr inbounds nuw %struct.ssl_connection_st, ptr %44, i32 0, i32 99
  store i64 32, ptr %45, align 8, !tbaa !208
  %46 = load ptr, ptr %4, align 8, !tbaa !11
  %47 = getelementptr inbounds nuw %struct.ssl_connection_st, ptr %46, i32 0, i32 99
  %48 = load i64, ptr %47, align 8, !tbaa !208
  %49 = call noalias ptr @CRYPTO_malloc(i64 noundef %48, ptr noundef @.str.1, i32 noundef 2836)
  %50 = load ptr, ptr %4, align 8, !tbaa !11
  %51 = getelementptr inbounds nuw %struct.ssl_connection_st, ptr %50, i32 0, i32 98
  store ptr %49, ptr %51, align 8, !tbaa !207
  %52 = icmp eq ptr %49, null
  br i1 %52, label %53, label %57

53:                                               ; preds = %40
  %54 = load ptr, ptr %4, align 8, !tbaa !11
  %55 = getelementptr inbounds nuw %struct.ssl_connection_st, ptr %54, i32 0, i32 99
  store i64 0, ptr %55, align 8, !tbaa !208
  call void @ERR_new()
  call void @ERR_set_debug(ptr noundef @.str.1, i32 noundef 2838, ptr noundef @__func__.tls_construct_certificate_request)
  %56 = load ptr, ptr %4, align 8, !tbaa !11
  call void (ptr, i32, i32, ptr, ...) @ossl_statem_fatal(ptr noundef %56, i32 noundef 80, i32 noundef 786691, ptr noundef null)
  store i32 0, ptr %3, align 4
  br label %175

57:                                               ; preds = %40
  %58 = load ptr, ptr %4, align 8, !tbaa !11
  %59 = getelementptr inbounds nuw %struct.ssl_connection_st, ptr %58, i32 0, i32 0
  %60 = getelementptr inbounds nuw %struct.ssl_st, ptr %59, i32 0, i32 1
  %61 = load ptr, ptr %60, align 8, !tbaa !147
  %62 = getelementptr inbounds nuw %struct.ssl_ctx_st, ptr %61, i32 0, i32 0
  %63 = load ptr, ptr %62, align 8, !tbaa !201
  %64 = load ptr, ptr %4, align 8, !tbaa !11
  %65 = getelementptr inbounds nuw %struct.ssl_connection_st, ptr %64, i32 0, i32 98
  %66 = load ptr, ptr %65, align 8, !tbaa !207
  %67 = load ptr, ptr %4, align 8, !tbaa !11
  %68 = getelementptr inbounds nuw %struct.ssl_connection_st, ptr %67, i32 0, i32 99
  %69 = load i64, ptr %68, align 8, !tbaa !208
  %70 = call i32 @RAND_bytes_ex(ptr noundef %63, ptr noundef %66, i64 noundef %69, i32 noundef 0)
  %71 = icmp sle i32 %70, 0
  br i1 %71, label %82, label %72

72:                                               ; preds = %57
  %73 = load ptr, ptr %5, align 8, !tbaa !145
  %74 = load ptr, ptr %4, align 8, !tbaa !11
  %75 = getelementptr inbounds nuw %struct.ssl_connection_st, ptr %74, i32 0, i32 98
  %76 = load ptr, ptr %75, align 8, !tbaa !207
  %77 = load ptr, ptr %4, align 8, !tbaa !11
  %78 = getelementptr inbounds nuw %struct.ssl_connection_st, ptr %77, i32 0, i32 99
  %79 = load i64, ptr %78, align 8, !tbaa !208
  %80 = call i32 @WPACKET_sub_memcpy__(ptr noundef %73, ptr noundef %76, i64 noundef %79, i64 noundef 1)
  %81 = icmp ne i32 %80, 0
  br i1 %81, label %84, label %82

82:                                               ; preds = %72, %57
  call void @ERR_new()
  call void @ERR_set_debug(ptr noundef @.str.1, i32 noundef 2845, ptr noundef @__func__.tls_construct_certificate_request)
  %83 = load ptr, ptr %4, align 8, !tbaa !11
  call void (ptr, i32, i32, ptr, ...) @ossl_statem_fatal(ptr noundef %83, i32 noundef 80, i32 noundef 786691, ptr noundef null)
  store i32 0, ptr %3, align 4
  br label %175

84:                                               ; preds = %72
  %85 = load ptr, ptr %4, align 8, !tbaa !11
  %86 = call i32 @tls13_restore_handshake_digest_for_pha(ptr noundef %85)
  %87 = icmp ne i32 %86, 0
  br i1 %87, label %89, label %88

88:                                               ; preds = %84
  store i32 0, ptr %3, align 4
  br label %175

89:                                               ; preds = %84
  br label %97

90:                                               ; preds = %35
  %91 = load ptr, ptr %5, align 8, !tbaa !145
  %92 = call i32 @WPACKET_put_bytes__(ptr noundef %91, i64 noundef 0, i64 noundef 1)
  %93 = icmp ne i32 %92, 0
  br i1 %93, label %96, label %94

94:                                               ; preds = %90
  call void @ERR_new()
  call void @ERR_set_debug(ptr noundef @.str.1, i32 noundef 2855, ptr noundef @__func__.tls_construct_certificate_request)
  %95 = load ptr, ptr %4, align 8, !tbaa !11
  call void (ptr, i32, i32, ptr, ...) @ossl_statem_fatal(ptr noundef %95, i32 noundef 80, i32 noundef 786691, ptr noundef null)
  store i32 0, ptr %3, align 4
  br label %175

96:                                               ; preds = %90
  br label %97

97:                                               ; preds = %96, %89
  %98 = load ptr, ptr %4, align 8, !tbaa !11
  %99 = load ptr, ptr %5, align 8, !tbaa !145
  %100 = call i32 @tls_construct_extensions(ptr noundef %98, ptr noundef %99, i32 noundef 16384, ptr noundef null, i64 noundef 0)
  %101 = icmp ne i32 %100, 0
  br i1 %101, label %103, label %102

102:                                              ; preds = %97
  store i32 0, ptr %3, align 4
  br label %175

103:                                              ; preds = %97
  br label %166

104:                                              ; preds = %27, %19, %2
  %105 = load ptr, ptr %5, align 8, !tbaa !145
  %106 = call i32 @WPACKET_start_sub_packet_len__(ptr noundef %105, i64 noundef 1)
  %107 = icmp ne i32 %106, 0
  br i1 %107, label %108, label %117

108:                                              ; preds = %104
  %109 = load ptr, ptr %4, align 8, !tbaa !11
  %110 = load ptr, ptr %5, align 8, !tbaa !145
  %111 = call i32 @ssl3_get_req_cert_type(ptr noundef %109, ptr noundef %110)
  %112 = icmp ne i32 %111, 0
  br i1 %112, label %113, label %117

113:                                              ; preds = %108
  %114 = load ptr, ptr %5, align 8, !tbaa !145
  %115 = call i32 @WPACKET_close(ptr noundef %114)
  %116 = icmp ne i32 %115, 0
  br i1 %116, label %119, label %117

117:                                              ; preds = %113, %108, %104
  call void @ERR_new()
  call void @ERR_set_debug(ptr noundef @.str.1, i32 noundef 2872, ptr noundef @__func__.tls_construct_certificate_request)
  %118 = load ptr, ptr %4, align 8, !tbaa !11
  call void (ptr, i32, i32, ptr, ...) @ossl_statem_fatal(ptr noundef %118, i32 noundef 80, i32 noundef 786691, ptr noundef null)
  store i32 0, ptr %3, align 4
  br label %175

119:                                              ; preds = %113
  %120 = load ptr, ptr %4, align 8, !tbaa !11
  %121 = getelementptr inbounds nuw %struct.ssl_connection_st, ptr %120, i32 0, i32 0
  %122 = getelementptr inbounds nuw %struct.ssl_st, ptr %121, i32 0, i32 3
  %123 = load ptr, ptr %122, align 8, !tbaa !17
  %124 = getelementptr inbounds nuw %struct.ssl_method_st, ptr %123, i32 0, i32 28
  %125 = load ptr, ptr %124, align 8, !tbaa !77
  %126 = getelementptr inbounds nuw %struct.ssl3_enc_method, ptr %125, i32 0, i32 10
  %127 = load i32, ptr %126, align 8, !tbaa !80
  %128 = and i32 %127, 2
  %129 = icmp ne i32 %128, 0
  br i1 %129, label %130, label %157

130:                                              ; preds = %119
  call void @llvm.lifetime.start.p0(i64 8, ptr %6) #9
  call void @llvm.lifetime.start.p0(i64 8, ptr %7) #9
  %131 = load ptr, ptr %4, align 8, !tbaa !11
  %132 = call i64 @tls12_get_psigalgs(ptr noundef %131, i32 noundef 1, ptr noundef %6)
  store i64 %132, ptr %7, align 8, !tbaa !9
  %133 = load ptr, ptr %5, align 8, !tbaa !145
  %134 = call i32 @WPACKET_start_sub_packet_len__(ptr noundef %133, i64 noundef 2)
  %135 = icmp ne i32 %134, 0
  br i1 %135, label %136, label %151

136:                                              ; preds = %130
  %137 = load ptr, ptr %5, align 8, !tbaa !145
  %138 = call i32 @WPACKET_set_flags(ptr noundef %137, i32 noundef 1)
  %139 = icmp ne i32 %138, 0
  br i1 %139, label %140, label %151

140:                                              ; preds = %136
  %141 = load ptr, ptr %4, align 8, !tbaa !11
  %142 = load ptr, ptr %5, align 8, !tbaa !145
  %143 = load ptr, ptr %6, align 8, !tbaa !209
  %144 = load i64, ptr %7, align 8, !tbaa !9
  %145 = call i32 @tls12_copy_sigalgs(ptr noundef %141, ptr noundef %142, ptr noundef %143, i64 noundef %144)
  %146 = icmp ne i32 %145, 0
  br i1 %146, label %147, label %151

147:                                              ; preds = %140
  %148 = load ptr, ptr %5, align 8, !tbaa !145
  %149 = call i32 @WPACKET_close(ptr noundef %148)
  %150 = icmp ne i32 %149, 0
  br i1 %150, label %153, label %151

151:                                              ; preds = %147, %140, %136, %130
  call void @ERR_new()
  call void @ERR_set_debug(ptr noundef @.str.1, i32 noundef 2884, ptr noundef @__func__.tls_construct_certificate_request)
  %152 = load ptr, ptr %4, align 8, !tbaa !11
  call void (ptr, i32, i32, ptr, ...) @ossl_statem_fatal(ptr noundef %152, i32 noundef 80, i32 noundef 786691, ptr noundef null)
  store i32 0, ptr %3, align 4
  store i32 1, ptr %8, align 4
  br label %154

153:                                              ; preds = %147
  store i32 0, ptr %8, align 4
  br label %154

154:                                              ; preds = %153, %151
  call void @llvm.lifetime.end.p0(i64 8, ptr %7) #9
  call void @llvm.lifetime.end.p0(i64 8, ptr %6) #9
  %155 = load i32, ptr %8, align 4
  switch i32 %155, label %177 [
    i32 0, label %156
    i32 1, label %175
  ]

156:                                              ; preds = %154
  br label %157

157:                                              ; preds = %156, %119
  %158 = load ptr, ptr %4, align 8, !tbaa !11
  %159 = load ptr, ptr %4, align 8, !tbaa !11
  %160 = call ptr @get_ca_names(ptr noundef %159)
  %161 = load ptr, ptr %5, align 8, !tbaa !145
  %162 = call i32 @construct_ca_names(ptr noundef %158, ptr noundef %160, ptr noundef %161)
  %163 = icmp ne i32 %162, 0
  br i1 %163, label %165, label %164

164:                                              ; preds = %157
  store i32 0, ptr %3, align 4
  br label %175

165:                                              ; preds = %157
  br label %166

166:                                              ; preds = %165, %103
  %167 = load ptr, ptr %4, align 8, !tbaa !11
  %168 = getelementptr inbounds nuw %struct.ssl_connection_st, ptr %167, i32 0, i32 100
  %169 = load i32, ptr %168, align 8, !tbaa !102
  %170 = add nsw i32 %169, 1
  store i32 %170, ptr %168, align 8, !tbaa !102
  %171 = load ptr, ptr %4, align 8, !tbaa !11
  %172 = getelementptr inbounds nuw %struct.ssl_connection_st, ptr %171, i32 0, i32 24
  %173 = getelementptr inbounds nuw %struct.anon, ptr %172, i32 0, i32 14
  %174 = getelementptr inbounds nuw %struct.anon.0, ptr %173, i32 0, i32 22
  store i32 1, ptr %174, align 8, !tbaa !84
  store i32 1, ptr %3, align 4
  br label %175

175:                                              ; preds = %166, %164, %154, %117, %102, %94, %88, %82, %53
  %176 = load i32, ptr %3, align 4
  ret i32 %176

177:                                              ; preds = %154
  unreachable
}