; Function Attrs: nounwind uwtable
define range(i32 0, 2) i32 @tls_construct_certificate_request(ptr noundef %0, ptr noundef %1) #1 {
  %3 = alloca ptr, align 8
  %4 = getelementptr inbounds nuw i8, ptr %0, i64 24
  %5 = load ptr, ptr %4, align 8, !tbaa !3
  %6 = getelementptr inbounds nuw i8, ptr %5, i64 216
  %7 = load ptr, ptr %6, align 8, !tbaa !69
  %8 = getelementptr inbounds nuw i8, ptr %7, i64 80
  %9 = load i32, ptr %8, align 8, !tbaa !72
  %10 = and i32 %9, 8
  %.not = icmp eq i32 %10, 0
  br i1 %.not, label %11, label %44

11:                                               ; preds = %2
  %12 = load i32, ptr %5, align 8, !tbaa !74
  %13 = icmp slt i32 %12, 772
  %.not45 = icmp eq i32 %12, 65536
  %or.cond = or i1 %13, %.not45
  br i1 %or.cond, label %44, label %14

14:                                               ; preds = %11
  %15 = getelementptr inbounds nuw i8, ptr %0, i64 2984
  %16 = load i32, ptr %15, align 8, !tbaa !85
  %17 = icmp eq i32 %16, 3
  br i1 %17, label %18, label %39

18:                                               ; preds = %14
  %19 = getelementptr inbounds nuw i8, ptr %0, i64 2992
  %20 = load ptr, ptr %19, align 8, !tbaa !189
  tail call void @CRYPTO_free(ptr noundef %20, ptr noundef nonnull @.str.1, i32 noundef 2834) #12
  %21 = getelementptr inbounds nuw i8, ptr %0, i64 3000
  store i64 32, ptr %21, align 8, !tbaa !190
  %22 = tail call noalias ptr @CRYPTO_malloc(i64 noundef 32, ptr noundef nonnull @.str.1, i32 noundef 2836) #12
  store ptr %22, ptr %19, align 8, !tbaa !189
  %23 = icmp eq ptr %22, null
  br i1 %23, label %24, label %25

24:                                               ; preds = %18
  store i64 0, ptr %21, align 8, !tbaa !190
  tail call void @ERR_new() #12
  tail call void @ERR_set_debug(ptr noundef nonnull @.str.1, i32 noundef 2838, ptr noundef nonnull @__func__.tls_construct_certificate_request) #12
  tail call void (ptr, i32, i32, ptr, ...) @ossl_statem_fatal(ptr noundef nonnull %0, i32 noundef 80, i32 noundef 786691, ptr noundef null) #12
  br label %77

25:                                               ; preds = %18
  %26 = getelementptr inbounds nuw i8, ptr %0, i64 8
  %27 = load ptr, ptr %26, align 8, !tbaa !136
  %28 = load ptr, ptr %27, align 8, !tbaa !183
  %29 = load i64, ptr %21, align 8, !tbaa !190
  %30 = tail call i32 @RAND_bytes_ex(ptr noundef %28, ptr noundef nonnull %22, i64 noundef %29, i32 noundef 0) #12
  %31 = icmp slt i32 %30, 1
  br i1 %31, label %36, label %32

32:                                               ; preds = %25
  %33 = load ptr, ptr %19, align 8, !tbaa !189
  %34 = load i64, ptr %21, align 8, !tbaa !190
  %35 = tail call i32 @WPACKET_sub_memcpy__(ptr noundef %1, ptr noundef %33, i64 noundef %34, i64 noundef 1) #12
  %.not47 = icmp eq i32 %35, 0
  br i1 %.not47, label %36, label %37

36:                                               ; preds = %32, %25
  tail call void @ERR_new() #12
  tail call void @ERR_set_debug(ptr noundef nonnull @.str.1, i32 noundef 2845, ptr noundef nonnull @__func__.tls_construct_certificate_request) #12
  tail call void (ptr, i32, i32, ptr, ...) @ossl_statem_fatal(ptr noundef nonnull %0, i32 noundef 80, i32 noundef 786691, ptr noundef null) #12
  br label %77

37:                                               ; preds = %32
  %38 = tail call i32 @tls13_restore_handshake_digest_for_pha(ptr noundef nonnull %0) #12
  %.not48 = icmp eq i32 %38, 0
  br i1 %.not48, label %77, label %42

39:                                               ; preds = %14
  %40 = tail call i32 @WPACKET_put_bytes__(ptr noundef %1, i64 noundef 0, i64 noundef 1) #12
  %.not46 = icmp eq i32 %40, 0
  br i1 %.not46, label %41, label %42

41:                                               ; preds = %39
  tail call void @ERR_new() #12
  tail call void @ERR_set_debug(ptr noundef nonnull @.str.1, i32 noundef 2855, ptr noundef nonnull @__func__.tls_construct_certificate_request) #12
  tail call void (ptr, i32, i32, ptr, ...) @ossl_statem_fatal(ptr noundef nonnull %0, i32 noundef 80, i32 noundef 786691, ptr noundef null) #12
  br label %77

42:                                               ; preds = %39, %37
  %43 = tail call i32 @tls_construct_extensions(ptr noundef nonnull %0, ptr noundef %1, i32 noundef 16384, ptr noundef null, i64 noundef 0) #12
  %.not49 = icmp eq i32 %43, 0
  br i1 %.not49, label %77, label %72

44:                                               ; preds = %11, %2
  %45 = tail call i32 @WPACKET_start_sub_packet_len__(ptr noundef %1, i64 noundef 1) #12
  %.not50 = icmp eq i32 %45, 0
  br i1 %.not50, label %50, label %46

46:                                               ; preds = %44
  %47 = tail call i32 @ssl3_get_req_cert_type(ptr noundef nonnull %0, ptr noundef %1) #12
  %.not51 = icmp eq i32 %47, 0
  br i1 %.not51, label %50, label %48

48:                                               ; preds = %46
  %49 = tail call i32 @WPACKET_close(ptr noundef %1) #12
  %.not52 = icmp eq i32 %49, 0
  br i1 %.not52, label %50, label %51

50:                                               ; preds = %48, %46, %44
  tail call void @ERR_new() #12
  tail call void @ERR_set_debug(ptr noundef nonnull @.str.1, i32 noundef 2872, ptr noundef nonnull @__func__.tls_construct_certificate_request) #12
  tail call void (ptr, i32, i32, ptr, ...) @ossl_statem_fatal(ptr noundef nonnull %0, i32 noundef 80, i32 noundef 786691, ptr noundef null) #12
  br label %77

51:                                               ; preds = %48
  %52 = load ptr, ptr %4, align 8, !tbaa !3
  %53 = getelementptr inbounds nuw i8, ptr %52, i64 216
  %54 = load ptr, ptr %53, align 8, !tbaa !69
  %55 = getelementptr inbounds nuw i8, ptr %54, i64 80
  %56 = load i32, ptr %55, align 8, !tbaa !72
  %57 = and i32 %56, 2
  %.not53 = icmp eq i32 %57, 0
  br i1 %.not53, label %69, label %58

58:                                               ; preds = %51
  call void @llvm.lifetime.start.p0(i64 8, ptr nonnull %3) #12
  %59 = call i64 @tls12_get_psigalgs(ptr noundef nonnull %0, i32 noundef 1, ptr noundef nonnull %3) #12
  %60 = call i32 @WPACKET_start_sub_packet_len__(ptr noundef %1, i64 noundef 2) #12
  %.not54 = icmp eq i32 %60, 0
  br i1 %.not54, label %68, label %61

61:                                               ; preds = %58
  %62 = call i32 @WPACKET_set_flags(ptr noundef %1, i32 noundef 1) #12
  %.not55 = icmp eq i32 %62, 0
  br i1 %.not55, label %68, label %63

63:                                               ; preds = %61
  %64 = load ptr, ptr %3, align 8, !tbaa !191
  %65 = call i32 @tls12_copy_sigalgs(ptr noundef nonnull %0, ptr noundef %1, ptr noundef %64, i64 noundef %59) #12
  %.not56 = icmp eq i32 %65, 0
  br i1 %.not56, label %68, label %66

66:                                               ; preds = %63
  %67 = call i32 @WPACKET_close(ptr noundef %1) #12
  %.not57 = icmp eq i32 %67, 0
  br i1 %.not57, label %68, label %.thread

.thread:                                          ; preds = %66
  call void @llvm.lifetime.end.p0(i64 8, ptr nonnull %3) #12
  br label %69

68:                                               ; preds = %58, %61, %63, %66
  call void @ERR_new() #12
  call void @ERR_set_debug(ptr noundef nonnull @.str.1, i32 noundef 2884, ptr noundef nonnull @__func__.tls_construct_certificate_request) #12
  call void (ptr, i32, i32, ptr, ...) @ossl_statem_fatal(ptr noundef nonnull %0, i32 noundef 80, i32 noundef 786691, ptr noundef null) #12
  call void @llvm.lifetime.end.p0(i64 8, ptr nonnull %3) #12
  br label %77

69:                                               ; preds = %.thread, %51
  %70 = call ptr @get_ca_names(ptr noundef nonnull %0) #12
  %71 = call i32 @construct_ca_names(ptr noundef nonnull %0, ptr noundef %70, ptr noundef %1) #12
  %.not58 = icmp eq i32 %71, 0
  br i1 %.not58, label %77, label %72

72:                                               ; preds = %69, %42
  %73 = getelementptr inbounds nuw i8, ptr %0, i64 3008
  %74 = load i32, ptr %73, align 8, !tbaa !93
  %75 = add nsw i32 %74, 1
  store i32 %75, ptr %73, align 8, !tbaa !93
  %76 = getelementptr inbounds nuw i8, ptr %0, i64 920
  store i32 1, ptr %76, align 8, !tbaa !78
  br label %77

77:                                               ; preds = %68, %69, %42, %37, %72, %50, %41, %36, %24
  %.042 = phi i32 [ 0, %68 ], [ 1, %72 ], [ 0, %50 ], [ 0, %24 ], [ 0, %36 ], [ 0, %41 ], [ 0, %37 ], [ 0, %42 ], [ 0, %69 ]
  ret i32 %.042
}